target datalayout = "e-m:e-p270:32:32-p271:32:32-p272:64:64-i64:64-i128:128-f80:128-n8:16:32:64-S128"
target triple = "x86_64-pc-linux-gnu"

%struct.dump_config = type { i64, i64, i64, ptr, ptr, i64, i64, i64, i64, i8, i32, i64, i64, i64, [4096 x i8] }

@.str.48 = private unnamed_addr constant [3 x i8] c", \00", align 1
@ruby_hexdigits = external constant [0 x i8], align 1
@.str.104 = private unnamed_addr constant [4 x i8] c"]}\0A\00", align 1
@.str.105 = private unnamed_addr constant [25 x i8] c"{\22type\22:\22ROOT\22, \22root\22:\22\00", align 1
@.str.106 = private unnamed_addr constant [18 x i8] c"\22, \22references\22:[\00", align 1

; Function Attrs: nounwind sspstrong uwtable
define internal void @dump_append_ptr(ptr noundef %0, i64 noundef %1) #0 {
  %3 = alloca ptr, align 8
  %4 = alloca i64, align 8
  %5 = alloca [20 x i8], align 16
  %6 = alloca ptr, align 8
  %7 = alloca ptr, align 8
  store ptr %0, ptr %3, align 8, !tbaa !18
  store i64 %1, ptr %4, align 8, !tbaa !6
  call void @llvm.lifetime.start.p0(i64 20, ptr %5) #21
  call void @llvm.lifetime.start.p0(i64 8, ptr %6) #21
  call void @llvm.lifetime.start.p0(i64 8, ptr %7) #21
  %8 = getelementptr inbounds nuw [20 x i8], ptr %5, i64 0, i64 20
  store ptr %8, ptr %7, align 8, !tbaa !69
  store ptr %8, ptr %6, align 8, !tbaa !69
  %9 = load ptr, ptr %6, align 8, !tbaa !69
  %10 = getelementptr inbounds i8, ptr %9, i32 -1
  store ptr %10, ptr %6, align 8, !tbaa !69
  store i8 34, ptr %10, align 1, !tbaa !84
  br label %11

11:                                               ; preds = %14, %2
  %12 = load i64, ptr %4, align 8, !tbaa !6
  %13 = icmp ne i64 %12, 0
  br i1 %13, label %14, label %23

14:                                               ; preds = %11
  %15 = load i64, ptr %4, align 8, !tbaa !6
  %16 = and i64 %15, 15
  %17 = getelementptr inbounds nuw [0 x i8], ptr @ruby_hexdigits, i64 0, i64 %16
  %18 = load i8, ptr %17, align 1, !tbaa !84
  %19 = load ptr, ptr %6, align 8, !tbaa !69
  %20 = getelementptr inbounds i8, ptr %19, i32 -1
  store ptr %20, ptr %6, align 8, !tbaa !69
  store i8 %18, ptr %20, align 1, !tbaa !84
  %21 = load i64, ptr %4, align 8, !tbaa !6
  %22 = lshr i64 %21, 4
  store i64 %22, ptr %4, align 8, !tbaa !6
  br label %11, !llvm.loop !99

23:                                               ; preds = %11
  %24 = load ptr, ptr %6, align 8, !tbaa !69
  %25 = getelementptr inbounds i8, ptr %24, i32 -1
  store ptr %25, ptr %6, align 8, !tbaa !69
  store i8 120, ptr %25, align 1, !tbaa !84
  %26 = load ptr, ptr %6, align 8, !tbaa !69
  %27 = getelementptr inbounds i8, ptr %26, i32 -1
  store ptr %27, ptr %6, align 8, !tbaa !69
  store i8 48, ptr %27, align 1, !tbaa !84
  %28 = load ptr, ptr %6, align 8, !tbaa !69
  %29 = getelementptr inbounds i8, ptr %28, i32 -1
  store ptr %29, ptr %6, align 8, !tbaa !69
  store i8 34, ptr %29, align 1, !tbaa !84
  %30 = load ptr, ptr %3, align 8, !tbaa !18
  %31 = load ptr, ptr %6, align 8, !tbaa !69
  %32 = load ptr, ptr %7, align 8, !tbaa !69
  %33 = load ptr, ptr %6, align 8, !tbaa !69
  %34 = ptrtoint ptr %32 to i64
  %35 = ptrtoint ptr %33 to i64
  %36 = sub i64 %34, %35
  call void @buffer_append(ptr noundef %30, ptr noundef %31, i64 noundef %36)
  call void @llvm.lifetime.end.p0(i64 8, ptr %7) #21
  call void @llvm.lifetime.end.p0(i64 8, ptr %6) #21
  call void @llvm.lifetime.end.p0(i64 20, ptr %5) #21
  ret void
}

; Function Attrs: nounwind sspstrong uwtable
define internal void @dump_append_ref(ptr noundef %0, i64 noundef %1) #0 {
  %3 = alloca ptr, align 8
  %4 = alloca i64, align 8
  store ptr %0, ptr %3, align 8, !tbaa !18
  store i64 %1, ptr %4, align 8, !tbaa !6
  %5 = load ptr, ptr %3, align 8, !tbaa !18
  %6 = load i64, ptr %4, align 8, !tbaa !6
  call void @dump_append_ptr(ptr noundef %5, i64 noundef %6)
  ret void
}

; Function Attrs: nounwind sspstrong uwtable
define internal void @root_obj_i(ptr noundef %0, i64 noundef %1, ptr noundef %2) #0 {
  %4 = alloca ptr, align 8
  %5 = alloca i64, align 8
  %6 = alloca ptr, align 8
  %7 = alloca ptr, align 8
  store ptr %0, ptr %4, align 8, !tbaa !69
  store i64 %1, ptr %5, align 8, !tbaa !6
  store ptr %2, ptr %6, align 8, !tbaa !93
  call void @llvm.lifetime.start.p0(i64 8, ptr %7) #21
  %8 = load ptr, ptr %6, align 8, !tbaa !93
  store ptr %8, ptr %7, align 8, !tbaa !18
  %9 = load ptr, ptr %7, align 8, !tbaa !18
  %10 = getelementptr inbounds nuw %struct.dump_config, ptr %9, i32 0, i32 4
  %11 = load ptr, ptr %10, align 8, !tbaa !110
  %12 = icmp ne ptr %11, null
  br i1 %12, label %13, label %21

13:                                               ; preds = %3
  %14 = load ptr, ptr %4, align 8, !tbaa !69
  %15 = load ptr, ptr %7, align 8, !tbaa !18
  %16 = getelementptr inbounds nuw %struct.dump_config, ptr %15, i32 0, i32 4
  %17 = load ptr, ptr %16, align 8, !tbaa !110
  %18 = icmp ne ptr %14, %17
  br i1 %18, label %19, label %21

19:                                               ; preds = %13
  %20 = load ptr, ptr %7, align 8, !tbaa !18
  call void @buffer_append(ptr noundef %20, ptr noundef @.str.104, i64 noundef 3)
  br label %21

21:                                               ; preds = %19, %13, %3
  %22 = load ptr, ptr %7, align 8, !tbaa !18
  %23 = getelementptr inbounds nuw %struct.dump_config, ptr %22, i32 0, i32 4
  %24 = load ptr, ptr %23, align 8, !tbaa !110
  %25 = icmp eq ptr %24, null
  br i1 %25, label %32, label %26

26:                                               ; preds = %21
  %27 = load ptr, ptr %4, align 8, !tbaa !69
  %28 = load ptr, ptr %7, align 8, !tbaa !18
  %29 = getelementptr inbounds nuw %struct.dump_config, ptr %28, i32 0, i32 4
  %30 = load ptr, ptr %29, align 8, !tbaa !110
  %31 = icmp ne ptr %27, %30
  br i1 %31, label %32, label %41

32:                                               ; preds = %26, %21
  %33 = load ptr, ptr %7, align 8, !tbaa !18
  call void @buffer_append(ptr noundef %33, ptr noundef @.str.105, i64 noundef 24)
  %34 = load ptr, ptr %7, align 8, !tbaa !18
  %35 = load ptr, ptr %4, align 8, !tbaa !69
  %36 = load ptr, ptr %4, align 8, !tbaa !69
  %37 = call i64 @strlen(ptr noundef %36) #23
  call void @buffer_append(ptr noundef %34, ptr noundef %35, i64 noundef %37)
  %38 = load ptr, ptr %7, align 8, !tbaa !18
  call void @buffer_append(ptr noundef %38, ptr noundef @.str.106, i64 noundef 17)
  %39 = load ptr, ptr %7, align 8, !tbaa !18
  %40 = load i64, ptr %5, align 8, !tbaa !6
  call void @dump_append_ref(ptr noundef %39, i64 noundef %40)
  br label %45

41:                                               ; preds = %26
  %42 = load ptr, ptr %7, align 8, !tbaa !18
  call void @buffer_append(ptr noundef %42, ptr noundef @.str.48, i64 noundef 2)
  %43 = load ptr, ptr %7, align 8, !tbaa !18
  %44 = load i64, ptr %5, align 8, !tbaa !6
  call void @dump_append_ref(ptr noundef %43, i64 noundef %44)
  br label %45

45:                                               ; preds = %41, %32
  %46 = load ptr, ptr %4, align 8, !tbaa !69
  %47 = load ptr, ptr %7, align 8, !tbaa !18
  %48 = getelementptr inbounds nuw %struct.dump_config, ptr %47, i32 0, i32 4
  store ptr %46, ptr %48, align 8, !tbaa !110
  %49 = load ptr, ptr %7, align 8, !tbaa !18
  %50 = getelementptr inbounds nuw %struct.dump_config, ptr %49, i32 0, i32 9
  %51 = load i8, ptr %50, align 8
  %52 = and i8 %51, -2
  %53 = or i8 %52, 1
  store i8 %53, ptr %50, align 8
  call void @llvm.lifetime.end.p0(i64 8, ptr %7) #21
  ret void
}