; Function Attrs: nounwind sspstrong uwtable
define internal void @root_obj_i(ptr noundef %0, i64 noundef %1, ptr noundef %2) #0 {
  %4 = alloca [20 x i8], align 16
  %5 = alloca [20 x i8], align 16
  %6 = getelementptr inbounds nuw i8, ptr %2, i64 32
  %7 = load ptr, ptr %6, align 8, !tbaa !96
  %.not = icmp eq ptr %7, null
  %.not21 = icmp eq ptr %0, %7
  %or.cond = or i1 %.not, %.not21
  br i1 %or.cond, label %9, label %8

8:                                                ; preds = %3
  tail call fastcc void @buffer_append(ptr noundef nonnull %2, ptr noundef nonnull @.str.104, i64 noundef 3)
  %.pre = load ptr, ptr %6, align 8, !tbaa !96
  br label %9

9:                                                ; preds = %8, %3
  %10 = phi ptr [ %.pre, %8 ], [ %7, %3 ]
  %11 = icmp ne ptr %10, null
  %.not22 = icmp eq ptr %0, %10
  %or.cond23 = and i1 %11, %.not22
  br i1 %or.cond23, label %27, label %12

12:                                               ; preds = %9
  tail call fastcc void @buffer_append(ptr noundef nonnull %2, ptr noundef nonnull @.str.105, i64 noundef 24)
  %13 = tail call i64 @strlen(ptr noundef nonnull dereferenceable(1) %0) #13
  tail call fastcc void @buffer_append(ptr noundef nonnull %2, ptr noundef nonnull %0, i64 noundef %13)
  tail call fastcc void @buffer_append(ptr noundef nonnull %2, ptr noundef nonnull @.str.106, i64 noundef 17)
  call void @llvm.lifetime.start.p0(i64 20, ptr nonnull %5) #12
  %14 = getelementptr inbounds nuw i8, ptr %5, i64 19
  store i8 34, ptr %14, align 1, !tbaa !34
  %.not12.i.i = icmp eq i64 %1, 0
  br i1 %.not12.i.i, label %dump_append_ref.exit, label %.lr.ph.i.i

.lr.ph.i.i:                                       ; preds = %12, %.lr.ph.i.i
  %.014.i.i = phi i64 [ %19, %.lr.ph.i.i ], [ %1, %12 ]
  %.01113.i.i = phi ptr [ %18, %.lr.ph.i.i ], [ %14, %12 ]
  %15 = and i64 %.014.i.i, 15
  %16 = getelementptr inbounds nuw [0 x i8], ptr @ruby_hexdigits, i64 0, i64 %15
  %17 = load i8, ptr %16, align 1, !tbaa !34
  %18 = getelementptr inbounds i8, ptr %.01113.i.i, i64 -1
  store i8 %17, ptr %18, align 1, !tbaa !34
  %19 = lshr i64 %.014.i.i, 4
  %.not.i.i = icmp ult i64 %.014.i.i, 16
  br i1 %.not.i.i, label %dump_append_ref.exit, label %.lr.ph.i.i, !llvm.loop !35

dump_append_ref.exit:                             ; preds = %.lr.ph.i.i, %12
  %.011.lcssa.i.i = phi ptr [ %14, %12 ], [ %18, %.lr.ph.i.i ]
  %20 = getelementptr inbounds nuw i8, ptr %5, i64 20
  %21 = getelementptr inbounds i8, ptr %.011.lcssa.i.i, i64 -1
  store i8 120, ptr %21, align 1, !tbaa !34
  %22 = getelementptr inbounds i8, ptr %.011.lcssa.i.i, i64 -2
  store i8 48, ptr %22, align 1, !tbaa !34
  %23 = getelementptr inbounds i8, ptr %.011.lcssa.i.i, i64 -3
  store i8 34, ptr %23, align 1, !tbaa !34
  %24 = ptrtoint ptr %20 to i64
  %25 = ptrtoint ptr %23 to i64
  %26 = sub i64 %24, %25
  call fastcc void @buffer_append(ptr noundef nonnull %2, ptr noundef nonnull %23, i64 noundef %26)
  call void @llvm.lifetime.end.p0(i64 20, ptr nonnull %5) #12
  br label %41

27:                                               ; preds = %9
  tail call fastcc void @buffer_append(ptr noundef nonnull %2, ptr noundef nonnull @.str.48, i64 noundef 2)
  call void @llvm.lifetime.start.p0(i64 20, ptr nonnull %4) #12
  %28 = getelementptr inbounds nuw i8, ptr %4, i64 19
  store i8 34, ptr %28, align 1, !tbaa !34
  %.not12.i.i24 = icmp eq i64 %1, 0
  br i1 %.not12.i.i24, label %dump_append_ref.exit30, label %.lr.ph.i.i25

.lr.ph.i.i25:                                     ; preds = %27, %.lr.ph.i.i25
  %.014.i.i26 = phi i64 [ %33, %.lr.ph.i.i25 ], [ %1, %27 ]
  %.01113.i.i27 = phi ptr [ %32, %.lr.ph.i.i25 ], [ %28, %27 ]
  %29 = and i64 %.014.i.i26, 15
  %30 = getelementptr inbounds nuw [0 x i8], ptr @ruby_hexdigits, i64 0, i64 %29
  %31 = load i8, ptr %30, align 1, !tbaa !34
  %32 = getelementptr inbounds i8, ptr %.01113.i.i27, i64 -1
  store i8 %31, ptr %32, align 1, !tbaa !34
  %33 = lshr i64 %.014.i.i26, 4
  %.not.i.i28 = icmp ult i64 %.014.i.i26, 16
  br i1 %.not.i.i28, label %dump_append_ref.exit30, label %.lr.ph.i.i25, !llvm.loop !35

dump_append_ref.exit30:                           ; preds = %.lr.ph.i.i25, %27
  %.011.lcssa.i.i29 = phi ptr [ %28, %27 ], [ %32, %.lr.ph.i.i25 ]
  %34 = getelementptr inbounds nuw i8, ptr %4, i64 20
  %35 = getelementptr inbounds i8, ptr %.011.lcssa.i.i29, i64 -1
  store i8 120, ptr %35, align 1, !tbaa !34
  %36 = getelementptr inbounds i8, ptr %.011.lcssa.i.i29, i64 -2
  store i8 48, ptr %36, align 1, !tbaa !34
  %37 = getelementptr inbounds i8, ptr %.011.lcssa.i.i29, i64 -3
  store i8 34, ptr %37, align 1, !tbaa !34
  %38 = ptrtoint ptr %34 to i64
  %39 = ptrtoint ptr %37 to i64
  %40 = sub i64 %38, %39
  call fastcc void @buffer_append(ptr noundef nonnull %2, ptr noundef nonnull %37, i64 noundef %40)
  call void @llvm.lifetime.end.p0(i64 20, ptr nonnull %4) #12
  br label %41

41:                                               ; preds = %dump_append_ref.exit30, %dump_append_ref.exit
  store ptr %0, ptr %6, align 8, !tbaa !96
  %42 = getelementptr inbounds nuw i8, ptr %2, i64 72
  %43 = load i8, ptr %42, align 8
  %44 = or i8 %43, 1
  store i8 %44, ptr %42, align 8
  ret void
}